target datalayout = "e-m:e-p270:32:32-p271:32:32-p272:64:64-i64:64-i128:128-f80:128-n8:16:32:64-S128"
target triple = "x86_64-pc-linux-gnu"

%struct.H5C_class_t = type { i32, ptr, i32, i32, ptr, ptr, ptr, ptr, ptr, ptr, ptr, ptr, ptr, ptr }

@H5C_init_g = external global i8, align 1
@H5_libterm_g = external global i8, align 1
@.str = private unnamed_addr constant [102 x i8] c"generated/home/dtcxzyw/WorkSpace/Projects/compilers/llvm-opt-benchmark/bench/hdf5/hdf5/src/H5Centry.c\00", align 1
@H5E_CACHE_g = external global i64, align 8
@H5E_BADVALUE_g = external global i64, align 8
@__func__.H5C__verify_len_eoa = private unnamed_addr constant [20 x i8] c"H5C__verify_len_eoa\00", align 1
@.str.101 = private unnamed_addr constant [29 x i8] c"invalid EOA address for file\00", align 1
@.str.102 = private unnamed_addr constant [41 x i8] c"address of object past end of allocation\00", align 1
@.str.103 = private unnamed_addr constant [23 x i8] c"actual len exceeds EOA\00", align 1
@.str.104 = private unnamed_addr constant [42 x i8] c"len not positive after adjustment for EOA\00", align 1

; Function Attrs: nounwind uwtable
define internal i32 @H5C__verify_len_eoa(ptr noundef %0, ptr noundef %1, i64 noundef %2, ptr noundef %3, i1 noundef zeroext %4) #0 {
  %6 = alloca ptr, align 8
  %7 = alloca ptr, align 8
  %8 = alloca i64, align 8
  %9 = alloca ptr, align 8
  %10 = alloca i8, align 1
  %11 = alloca i32, align 4
  %12 = alloca i64, align 8
  %13 = alloca i32, align 4
  %14 = alloca i8, align 1
  store ptr %0, ptr %6, align 8, !tbaa !3
  store ptr %1, ptr %7, align 8, !tbaa !74
  store i64 %2, ptr %8, align 8, !tbaa !14
  store ptr %3, ptr %9, align 8, !tbaa !197
  %15 = zext i1 %4 to i8
  store i8 %15, ptr %10, align 1, !tbaa !12
  call void @llvm.lifetime.start.p0(i64 4, ptr %11) #7
  call void @llvm.lifetime.start.p0(i64 8, ptr %12) #7
  call void @llvm.lifetime.start.p0(i64 4, ptr %13) #7
  store i32 0, ptr %13, align 4, !tbaa !10
  call void @llvm.lifetime.start.p0(i64 1, ptr %14) #7
  store i8 0, ptr %14, align 1, !tbaa !12
  %16 = load i8, ptr @H5C_init_g, align 1, !tbaa !12, !range !16, !noundef !17
  %17 = trunc i8 %16 to i1
  br i1 %17, label %22, label %18

18:                                               ; preds = %5
  %19 = load i8, ptr @H5_libterm_g, align 1, !tbaa !12, !range !16, !noundef !17
  %20 = trunc i8 %19 to i1
  %21 = xor i1 %20, true
  br label %22

22:                                               ; preds = %18, %5
  %23 = phi i1 [ true, %5 ], [ %21, %18 ]
  %24 = xor i1 %23, true
  %25 = xor i1 %24, true
  %26 = zext i1 %25 to i32
  %27 = sext i32 %26 to i64
  %28 = call i64 @llvm.expect.i64(i64 %27, i64 1)
  %29 = icmp ne i64 %28, 0
  br i1 %29, label %30, label %180

30:                                               ; preds = %22
  %31 = load ptr, ptr %7, align 8, !tbaa !74
  %32 = getelementptr inbounds nuw %struct.H5C_class_t, ptr %31, i32 0, i32 2
  %33 = load i32, ptr %32, align 8, !tbaa !75
  %34 = icmp eq i32 %33, 4
  br i1 %34, label %35, label %36

35:                                               ; preds = %30
  br label %40

36:                                               ; preds = %30
  %37 = load ptr, ptr %7, align 8, !tbaa !74
  %38 = getelementptr inbounds nuw %struct.H5C_class_t, ptr %37, i32 0, i32 2
  %39 = load i32, ptr %38, align 8, !tbaa !75
  br label %40

40:                                               ; preds = %36, %35
  %41 = phi i32 [ 3, %35 ], [ %39, %36 ]
  store i32 %41, ptr %11, align 4, !tbaa !10
  %42 = load ptr, ptr %6, align 8, !tbaa !3
  %43 = load i32, ptr %11, align 4, !tbaa !10
  %44 = call i64 @H5F_get_eoa(ptr noundef %42, i32 noundef %43)
  store i64 %44, ptr %12, align 8, !tbaa !14
  %45 = load i64, ptr %12, align 8, !tbaa !14
  %46 = icmp ne i64 %45, -1
  br i1 %46, label %66, label %47

47:                                               ; preds = %40
  br label %48

48:                                               ; preds = %47
  br label %49

49:                                               ; preds = %48
  br label %50

50:                                               ; preds = %49
  %51 = load i64, ptr @H5E_CACHE_g, align 8, !tbaa !14
  %52 = load i64, ptr @H5E_BADVALUE_g, align 8, !tbaa !14
  %53 = call i32 (ptr, ptr, i32, i64, i64, ptr, ...) @H5E_printf_stack(ptr noundef @.str, ptr noundef @__func__.H5C__verify_len_eoa, i32 noundef 930, i64 noundef %51, i64 noundef %52, ptr noundef @.str.101)
  br label %54

54:                                               ; preds = %50
  br label %55

55:                                               ; preds = %54
  store i8 1, ptr %14, align 1, !tbaa !12
  %56 = load i8, ptr %14, align 1, !tbaa !12, !range !16, !noundef !17
  %57 = trunc i8 %56 to i1
  %58 = zext i1 %57 to i8
  store i8 %58, ptr %14, align 1, !tbaa !12
  br label %59

59:                                               ; preds = %55
  br label %60

60:                                               ; preds = %59
  br label %61

61:                                               ; preds = %60
  store i32 -1, ptr %13, align 4, !tbaa !10
  br label %179

62:                                               ; No predecessors!
  br label %63

63:                                               ; preds = %62
  br label %64

64:                                               ; preds = %63
  br label %65

65:                                               ; preds = %64
  br label %66

66:                                               ; preds = %65, %40
  %67 = load i64, ptr %8, align 8, !tbaa !14
  %68 = icmp ne i64 %67, -1
  br i1 %68, label %69, label %95

69:                                               ; preds = %66
  %70 = load i64, ptr %12, align 8, !tbaa !14
  %71 = icmp ne i64 %70, -1
  br i1 %71, label %72, label %95

72:                                               ; preds = %69
  %73 = load i64, ptr %8, align 8, !tbaa !14
  %74 = load i64, ptr %12, align 8, !tbaa !14
  %75 = icmp ugt i64 %73, %74
  br i1 %75, label %76, label %95

76:                                               ; preds = %72
  br label %77

77:                                               ; preds = %76
  br label %78

78:                                               ; preds = %77
  br label %79

79:                                               ; preds = %78
  %80 = load i64, ptr @H5E_CACHE_g, align 8, !tbaa !14
  %81 = load i64, ptr @H5E_BADVALUE_g, align 8, !tbaa !14
  %82 = call i32 (ptr, ptr, i32, i64, i64, ptr, ...) @H5E_printf_stack(ptr noundef @.str, ptr noundef @__func__.H5C__verify_len_eoa, i32 noundef 934, i64 noundef %80, i64 noundef %81, ptr noundef @.str.102)
  br label %83

83:                                               ; preds = %79
  br label %84

84:                                               ; preds = %83
  store i8 1, ptr %14, align 1, !tbaa !12
  %85 = load i8, ptr %14, align 1, !tbaa !12, !range !16, !noundef !17
  %86 = trunc i8 %85 to i1
  %87 = zext i1 %86 to i8
  store i8 %87, ptr %14, align 1, !tbaa !12
  br label %88

88:                                               ; preds = %84
  br label %89

89:                                               ; preds = %88
  br label %90

90:                                               ; preds = %89
  store i32 -1, ptr %13, align 4, !tbaa !10
  br label %179

91:                                               ; No predecessors!
  br label %92

92:                                               ; preds = %91
  br label %93

93:                                               ; preds = %92
  br label %94

94:                                               ; preds = %93
  br label %95

95:                                               ; preds = %94, %72, %69, %66
  %96 = load i64, ptr %8, align 8, !tbaa !14
  %97 = load ptr, ptr %9, align 8, !tbaa !197
  %98 = load i64, ptr %97, align 8, !tbaa !14
  %99 = add i64 %96, %98
  %100 = icmp ne i64 %99, -1
  br i1 %100, label %101, label %111

101:                                              ; preds = %95
  %102 = load i64, ptr %8, align 8, !tbaa !14
  %103 = icmp ne i64 %102, -1
  br i1 %103, label %104, label %111

104:                                              ; preds = %101
  %105 = load i64, ptr %8, align 8, !tbaa !14
  %106 = load ptr, ptr %9, align 8, !tbaa !197
  %107 = load i64, ptr %106, align 8, !tbaa !14
  %108 = add i64 %105, %107
  %109 = load i64, ptr %8, align 8, !tbaa !14
  %110 = icmp ult i64 %108, %109
  br i1 %110, label %127, label %111

111:                                              ; preds = %104, %101, %95
  %112 = load i64, ptr %8, align 8, !tbaa !14
  %113 = load ptr, ptr %9, align 8, !tbaa !197
  %114 = load i64, ptr %113, align 8, !tbaa !14
  %115 = add i64 %112, %114
  %116 = icmp ne i64 %115, -1
  br i1 %116, label %117, label %178

117:                                              ; preds = %111
  %118 = load i64, ptr %12, align 8, !tbaa !14
  %119 = icmp ne i64 %118, -1
  br i1 %119, label %120, label %178

120:                                              ; preds = %117
  %121 = load i64, ptr %8, align 8, !tbaa !14
  %122 = load ptr, ptr %9, align 8, !tbaa !197
  %123 = load i64, ptr %122, align 8, !tbaa !14
  %124 = add i64 %121, %123
  %125 = load i64, ptr %12, align 8, !tbaa !14
  %126 = icmp ugt i64 %124, %125
  br i1 %126, label %127, label %178

127:                                              ; preds = %120, %104
  %128 = load i8, ptr %10, align 1, !tbaa !12, !range !16, !noundef !17
  %129 = trunc i8 %128 to i1
  br i1 %129, label %130, label %149

130:                                              ; preds = %127
  br label %131

131:                                              ; preds = %130
  br label %132

132:                                              ; preds = %131
  br label %133

133:                                              ; preds = %132
  %134 = load i64, ptr @H5E_CACHE_g, align 8, !tbaa !14
  %135 = load i64, ptr @H5E_BADVALUE_g, align 8, !tbaa !14
  %136 = call i32 (ptr, ptr, i32, i64, i64, ptr, ...) @H5E_printf_stack(ptr noundef @.str, ptr noundef @__func__.H5C__verify_len_eoa, i32 noundef 939, i64 noundef %134, i64 noundef %135, ptr noundef @.str.103)
  br label %137

137:                                              ; preds = %133
  br label %138

138:                                              ; preds = %137
  store i8 1, ptr %14, align 1, !tbaa !12
  %139 = load i8, ptr %14, align 1, !tbaa !12, !range !16, !noundef !17
  %140 = trunc i8 %139 to i1
  %141 = zext i1 %140 to i8
  store i8 %141, ptr %14, align 1, !tbaa !12
  br label %142

142:                                              ; preds = %138
  br label %143

143:                                              ; preds = %142
  br label %144

144:                                              ; preds = %143
  store i32 -1, ptr %13, align 4, !tbaa !10
  br label %179

145:                                              ; No predecessors!
  br label %146

146:                                              ; preds = %145
  br label %147

147:                                              ; preds = %146
  br label %148

148:                                              ; preds = %147
  br label %177

149:                                              ; preds = %127
  %150 = load i64, ptr %12, align 8, !tbaa !14
  %151 = load i64, ptr %8, align 8, !tbaa !14
  %152 = sub i64 %150, %151
  %153 = load ptr, ptr %9, align 8, !tbaa !197
  store i64 %152, ptr %153, align 8, !tbaa !14
  %154 = load ptr, ptr %9, align 8, !tbaa !197
  %155 = load i64, ptr %154, align 8, !tbaa !14
  %156 = icmp ule i64 %155, 0
  br i1 %156, label %157, label %176

157:                                              ; preds = %149
  br label %158

158:                                              ; preds = %157
  br label %159

159:                                              ; preds = %158
  br label %160

160:                                              ; preds = %159
  %161 = load i64, ptr @H5E_CACHE_g, align 8, !tbaa !14
  %162 = load i64, ptr @H5E_BADVALUE_g, align 8, !tbaa !14
  %163 = call i32 (ptr, ptr, i32, i64, i64, ptr, ...) @H5E_printf_stack(ptr noundef @.str, ptr noundef @__func__.H5C__verify_len_eoa, i32 noundef 945, i64 noundef %161, i64 noundef %162, ptr noundef @.str.104)
  br label %164

164:                                              ; preds = %160
  br label %165

165:                                              ; preds = %164
  store i8 1, ptr %14, align 1, !tbaa !12
  %166 = load i8, ptr %14, align 1, !tbaa !12, !range !16, !noundef !17
  %167 = trunc i8 %166 to i1
  %168 = zext i1 %167 to i8
  store i8 %168, ptr %14, align 1, !tbaa !12
  br label %169

169:                                              ; preds = %165
  br label %170

170:                                              ; preds = %169
  br label %171

171:                                              ; preds = %170
  store i32 -1, ptr %13, align 4, !tbaa !10
  br label %179

172:                                              ; No predecessors!
  br label %173

173:                                              ; preds = %172
  br label %174

174:                                              ; preds = %173
  br label %175

175:                                              ; preds = %174
  br label %176

176:                                              ; preds = %175, %149
  br label %177

177:                                              ; preds = %176, %148
  br label %178

178:                                              ; preds = %177, %120, %117, %111
  br label %179

179:                                              ; preds = %178, %171, %144, %90, %61
  br label %180

180:                                              ; preds = %179, %22
  %181 = load i32, ptr %13, align 4, !tbaa !10
  call void @llvm.lifetime.end.p0(i64 1, ptr %14) #7
  call void @llvm.lifetime.end.p0(i64 4, ptr %13) #7
  call void @llvm.lifetime.end.p0(i64 8, ptr %12) #7
  call void @llvm.lifetime.end.p0(i64 4, ptr %11) #7
  ret i32 %181
}