; Function Attrs: nounwind uwtable
define internal fastcc range(i32 -1, 1) i32 @H5C__verify_len_eoa(ptr noundef %0, ptr noundef readonly captures(none) %1, i64 noundef %2, ptr noundef nonnull captures(none) %3, i1 noundef zeroext %4) unnamed_addr #0 {
  %6 = load i8, ptr @H5C_init_g, align 1, !tbaa !3, !range !7, !noundef !8
  %7 = trunc nuw i8 %6 to i1
  %8 = load i8, ptr @H5_libterm_g, align 1, !range !7
  %9 = trunc nuw i8 %8 to i1
  %10 = xor i1 %9, true
  %11 = select i1 %7, i1 true, i1 %10
  br i1 %11, label %12, label %46, !prof !9

12:                                               ; preds = %5
  %13 = getelementptr inbounds nuw i8, ptr %1, i64 16
  %14 = load i32, ptr %13, align 8, !tbaa !72
  %15 = icmp eq i32 %14, 4
  %spec.select = select i1 %15, i32 3, i32 %14
  %16 = tail call i64 @H5F_get_eoa(ptr noundef %0, i32 noundef %spec.select) #9
  %.not = icmp eq i64 %16, -1
  br i1 %.not, label %17, label %21

17:                                               ; preds = %12
  %18 = load i64, ptr @H5E_CACHE_g, align 8, !tbaa !59
  %19 = load i64, ptr @H5E_BADVALUE_g, align 8, !tbaa !59
  %20 = tail call i32 (ptr, ptr, i32, i64, i64, ptr, ...) @H5E_printf_stack(ptr noundef nonnull @.str, ptr noundef nonnull @__func__.H5C__verify_len_eoa, i32 noundef 930, i64 noundef %18, i64 noundef %19, ptr noundef nonnull @.str.101) #9
  br label %46

21:                                               ; preds = %12
  %22 = icmp ne i64 %2, -1
  %23 = icmp ugt i64 %2, %16
  %or.cond = and i1 %22, %23
  br i1 %or.cond, label %24, label %28

24:                                               ; preds = %21
  %25 = load i64, ptr @H5E_CACHE_g, align 8, !tbaa !59
  %26 = load i64, ptr @H5E_BADVALUE_g, align 8, !tbaa !59
  %27 = tail call i32 (ptr, ptr, i32, i64, i64, ptr, ...) @H5E_printf_stack(ptr noundef nonnull @.str, ptr noundef nonnull @__func__.H5C__verify_len_eoa, i32 noundef 934, i64 noundef %25, i64 noundef %26, ptr noundef nonnull @.str.102) #9
  br label %46

28:                                               ; preds = %21
  %29 = load i64, ptr %3, align 8, !tbaa !59
  %30 = add i64 %29, %2
  %31 = icmp ne i64 %30, -1
  %32 = icmp ult i64 %30, %2
  %or.cond41 = and i1 %22, %32
  %33 = icmp ugt i64 %30, %16
  %or.cond42 = and i1 %31, %33
  %or.cond43 = or i1 %or.cond41, %or.cond42
  br i1 %or.cond43, label %34, label %46

34:                                               ; preds = %28
  br i1 %4, label %35, label %39

35:                                               ; preds = %34
  %36 = load i64, ptr @H5E_CACHE_g, align 8, !tbaa !59
  %37 = load i64, ptr @H5E_BADVALUE_g, align 8, !tbaa !59
  %38 = tail call i32 (ptr, ptr, i32, i64, i64, ptr, ...) @H5E_printf_stack(ptr noundef nonnull @.str, ptr noundef nonnull @__func__.H5C__verify_len_eoa, i32 noundef 939, i64 noundef %36, i64 noundef %37, ptr noundef nonnull @.str.103) #9
  br label %46

39:                                               ; preds = %34
  %40 = sub i64 %16, %2
  store i64 %40, ptr %3, align 8, !tbaa !59
  %41 = icmp eq i64 %16, %2
  br i1 %41, label %42, label %46

42:                                               ; preds = %39
  %43 = load i64, ptr @H5E_CACHE_g, align 8, !tbaa !59
  %44 = load i64, ptr @H5E_BADVALUE_g, align 8, !tbaa !59
  %45 = tail call i32 (ptr, ptr, i32, i64, i64, ptr, ...) @H5E_printf_stack(ptr noundef nonnull @.str, ptr noundef nonnull @__func__.H5C__verify_len_eoa, i32 noundef 945, i64 noundef %43, i64 noundef %44, ptr noundef nonnull @.str.104) #9
  br label %46

46:                                               ; preds = %28, %17, %24, %35, %42, %39, %5
  %.0 = phi i32 [ -1, %24 ], [ -1, %35 ], [ -1, %42 ], [ 0, %39 ], [ -1, %17 ], [ 0, %5 ], [ 0, %28 ]
  ret i32 %.0
}